; ModuleID = 'source-C-CXX/36/1523.c'
source_filename = "source-C-CXX/36/1523.c"
target datalayout = "e-m:e-p270:32:32-p271:32:32-p272:64:64-i64:64-f80:128-n8:16:32:64-S128"
target triple = "x86_64-pc-linux-gnu"

@.str = private unnamed_addr constant [3 x i8] c"%d\00", align 1
@.str.1 = private unnamed_addr constant [3 x i8] c"%s\00", align 1
@.str.2 = private unnamed_addr constant [4 x i8] c"%c\0A\00", align 1
@str = private unnamed_addr constant [3 x i8] c"no\00", align 1

; Function Attrs: nofree nounwind sspstrong uwtable
define dso_local i32 @main() local_unnamed_addr #0 {
  %1 = alloca i32, align 4
  %2 = alloca [100020 x i8], align 16
  %3 = bitcast i32* %1 to i8*
  call void @llvm.lifetime.start.p0i8(i64 4, i8* nonnull %3) #5
  %4 = getelementptr inbounds [100020 x i8], [100020 x i8]* %2, i64 0, i64 0
  call void @llvm.lifetime.start.p0i8(i64 100020, i8* nonnull %4) #5
  %5 = call i32 (i8*, ...) @__isoc99_scanf(i8* getelementptr inbounds ([3 x i8], [3 x i8]* @.str, i64 0, i64 0), i32* nonnull %1)
  %6 = load i32, i32* %1, align 4, !tbaa !5
  %7 = icmp sgt i32 %6, 0
  br i1 %7, label %9, label %8

8:                                                ; preds = %41, %0
  call void @llvm.lifetime.end.p0i8(i64 100020, i8* nonnull %4) #5
  call void @llvm.lifetime.end.p0i8(i64 4, i8* nonnull %3) #5
  ret i32 0

9:                                                ; preds = %0, %41
  %10 = phi i32 [ %42, %41 ], [ 0, %0 ]
  %11 = call i32 (i8*, ...) @__isoc99_scanf(i8* getelementptr inbounds ([3 x i8], [3 x i8]* @.str.1, i64 0, i64 0), i8* nonnull %4)
  %12 = call i64 @strlen(i8* noundef nonnull %4) #6
  %13 = icmp eq i64 %12, 0
  br i1 %13, label %39, label %14

14:                                               ; preds = %9, %35
  %15 = phi i64 [ %36, %35 ], [ 0, %9 ]
  %16 = phi i1 [ %37, %35 ], [ true, %9 ]
  %17 = getelementptr inbounds [100020 x i8], [100020 x i8]* %2, i64 0, i64 %15
  %18 = load i8, i8* %17, align 1, !tbaa !9
  br label %21

19:                                               ; preds = %21
  %20 = icmp eq i64 %28, %12
  br i1 %20, label %29, label %21, !llvm.loop !10

21:                                               ; preds = %14, %19
  %22 = phi i64 [ 0, %14 ], [ %28, %19 ]
  %23 = getelementptr inbounds [100020 x i8], [100020 x i8]* %2, i64 0, i64 %22
  %24 = load i8, i8* %23, align 1, !tbaa !9
  %25 = icmp ne i8 %24, %18
  %26 = icmp eq i64 %22, %15
  %27 = select i1 %25, i1 true, i1 %26
  %28 = add nuw i64 %22, 1
  br i1 %27, label %19, label %35

29:                                               ; preds = %19
  %30 = and i64 %15, 4294967295
  %31 = getelementptr inbounds [100020 x i8], [100020 x i8]* %2, i64 0, i64 %30
  %32 = load i8, i8* %31, align 1, !tbaa !9
  %33 = sext i8 %32 to i32
  %34 = call i32 (i8*, ...) @printf(i8* nonnull dereferenceable(1) getelementptr inbounds ([4 x i8], [4 x i8]* @.str.2, i64 0, i64 0), i32 %33)
  br i1 %16, label %41, label %39

35:                                               ; preds = %21
  %36 = add nuw i64 %15, 1
  %37 = icmp ugt i64 %12, %36
  %38 = icmp eq i64 %36, %12
  br i1 %38, label %39, label %14, !llvm.loop !12

39:                                               ; preds = %35, %9, %29
  %40 = call i32 @puts(i8* nonnull dereferenceable(1) getelementptr inbounds ([3 x i8], [3 x i8]* @str, i64 0, i64 0))
  br label %41

41:                                               ; preds = %29, %39
  %42 = add nuw nsw i32 %10, 1
  %43 = load i32, i32* %1, align 4, !tbaa !5
  %44 = icmp slt i32 %42, %43
  br i1 %44, label %9, label %8, !llvm.loop !13
}

; Function Attrs: argmemonly mustprogress nofree nosync nounwind willreturn
declare void @llvm.lifetime.start.p0i8(i64 immarg, i8* nocapture) #1

; Function Attrs: nofree nounwind
declare noundef i32 @__isoc99_scanf(i8* nocapture noundef readonly, ...) local_unnamed_addr #2

; Function Attrs: argmemonly mustprogress nofree nounwind readonly willreturn
declare i64 @strlen(i8* nocapture) local_unnamed_addr #3

; Function Attrs: argmemonly mustprogress nofree nosync nounwind willreturn
declare void @llvm.lifetime.end.p0i8(i64 immarg, i8* nocapture) #1

; Function Attrs: nofree nounwind
declare noundef i32 @printf(i8* nocapture noundef readonly, ...) local_unnamed_addr #2

; Function Attrs: nofree nounwind
declare noundef i32 @puts(i8* nocapture noundef readonly) local_unnamed_addr #4


!llvm.module.flags = !{!0, !1, !2, !3}
!llvm.ident = !{!4}

!0 = !{i32 1, !"wchar_size", i32 4}
!1 = !{i32 7, !"PIC Level", i32 2}
!2 = !{i32 7, !"PIE Level", i32 2}
!3 = !{i32 7, !"uwtable", i32 1}
!4 = !{!"clang version 13.0.0"}
!5 = !{!6, !6, i64 0}
!6 = !{!"int", !7, i64 0}
!7 = !{!"omnipotent char", !8, i64 0}
!8 = !{!"Simple C/C++ TBAA"}
!9 = !{!7, !7, i64 0}
!10 = distinct !{!10, !11}
!11 = !{!"llvm.loop.mustprogress"}
!12 = distinct !{!12, !11}
!13 = distinct !{!13, !11}
